; Function Attrs: null_pointer_is_valid sspstrong uwtable
define internal void @free_radius_vendor_info(ptr noundef %0) #0 {
  %2 = load ptr, ptr %0, align 8
  tail call void @g_free(ptr noundef %2)
  %3 = getelementptr inbounds nuw i8, ptr %0, i64 16
  %4 = load ptr, ptr %3, align 8
  %.not = icmp eq ptr %4, null
  br i1 %.not, label %6, label %5

5:                                                ; preds = %1
  tail call void @g_hash_table_destroy(ptr noundef nonnull %4)
  br label %6

6:                                                ; preds = %5, %1
  tail call void @g_free(ptr noundef %0)
  ret void
}